target datalayout = "e-m:e-p270:32:32-p271:32:32-p272:64:64-i64:64-i128:128-f80:128-n8:16:32:64-S128"
target triple = "x86_64-pc-linux-gnu"

%struct.SystemThemeData = type { ptr, i32 }
%struct.DBusMessageIter = type { ptr, ptr, i32, i32, i32, i32, i32, i32, i32, i32, i32, i32, ptr, ptr }
%struct.SDL_DBusContext = type { ptr, ptr, ptr, ptr, ptr, ptr, ptr, ptr, ptr, ptr, ptr, ptr, ptr, ptr, ptr, ptr, ptr, ptr, ptr, ptr, ptr, ptr, ptr, ptr, ptr, ptr, ptr, ptr, ptr, ptr, ptr, ptr, ptr, ptr, ptr, ptr, ptr, ptr, ptr, ptr, ptr, ptr, ptr, ptr, ptr, ptr, ptr, ptr, ptr, ptr }

@SDL_SystemTheme_Init.namespace = internal global ptr @.str, align 8
@SDL_SystemTheme_Init.key = internal global ptr @.str.1, align 8
@system_theme_data = internal global %struct.SystemThemeData zeroinitializer, align 8
@.str.2 = private unnamed_addr constant [31 x i8] c"org.freedesktop.portal.Desktop\00", align 1
@.str.3 = private unnamed_addr constant [32 x i8] c"/org/freedesktop/portal/desktop\00", align 1
@.str.4 = private unnamed_addr constant [32 x i8] c"org.freedesktop.portal.Settings\00", align 1
@.str.5 = private unnamed_addr constant [5 x i8] c"Read\00", align 1
@.str.6 = private unnamed_addr constant [138 x i8] c"type='signal', interface='org.freedesktop.portal.Settings',member='SettingChanged', arg0='org.freedesktop.appearance',arg1='color-scheme'\00", align 1

; Function Attrs: nounwind uwtable
define internal zeroext i1 @DBus_ExtractThemeVariant(ptr noundef %0, ptr noundef %1) #0 {
  %3 = alloca i1, align 1
  %4 = alloca ptr, align 8
  %5 = alloca ptr, align 8
  %6 = alloca ptr, align 8
  %7 = alloca i32, align 4
  %8 = alloca %struct.DBusMessageIter, align 8
  %9 = alloca i32, align 4
  store ptr %0, ptr %4, align 8
  store ptr %1, ptr %5, align 8
  call void @llvm.lifetime.start.p0(i64 8, ptr %6) #3
  %10 = load ptr, ptr @system_theme_data, align 8
  store ptr %10, ptr %6, align 8
  call void @llvm.lifetime.start.p0(i64 4, ptr %7) #3
  call void @llvm.lifetime.start.p0(i64 72, ptr %8) #3
  %11 = load ptr, ptr %6, align 8
  %12 = getelementptr inbounds nuw %struct.SDL_DBusContext, ptr %11, i32 0, i32 37
  %13 = load ptr, ptr %12, align 8
  %14 = load ptr, ptr %4, align 8
  %15 = call i32 %13(ptr noundef %14)
  %16 = icmp ne i32 %15, 118
  br i1 %16, label %17, label %18

17:                                               ; preds = %2
  store i1 false, ptr %3, align 1
  store i32 1, ptr %9, align 4
  br label %41

18:                                               ; preds = %2
  %19 = load ptr, ptr %6, align 8
  %20 = getelementptr inbounds nuw %struct.SDL_DBusContext, ptr %19, i32 0, i32 38
  %21 = load ptr, ptr %20, align 8
  %22 = load ptr, ptr %4, align 8
  call void %21(ptr noundef %22, ptr noundef %8)
  %23 = load ptr, ptr %6, align 8
  %24 = getelementptr inbounds nuw %struct.SDL_DBusContext, ptr %23, i32 0, i32 37
  %25 = load ptr, ptr %24, align 8
  %26 = call i32 %25(ptr noundef %8)
  %27 = icmp ne i32 %26, 117
  br i1 %27, label %28, label %29

28:                                               ; preds = %18
  store i1 false, ptr %3, align 1
  store i32 1, ptr %9, align 4
  br label %41

29:                                               ; preds = %18
  %30 = load ptr, ptr %6, align 8
  %31 = getelementptr inbounds nuw %struct.SDL_DBusContext, ptr %30, i32 0, i32 36
  %32 = load ptr, ptr %31, align 8
  call void %32(ptr noundef %8, ptr noundef %7)
  %33 = load i32, ptr %7, align 4
  switch i32 %33, label %40 [
    i32 0, label %34
    i32 1, label %36
    i32 2, label %38
  ]

34:                                               ; preds = %29
  %35 = load ptr, ptr %5, align 8
  store i32 0, ptr %35, align 4
  br label %40

36:                                               ; preds = %29
  %37 = load ptr, ptr %5, align 8
  store i32 2, ptr %37, align 4
  br label %40

38:                                               ; preds = %29
  %39 = load ptr, ptr %5, align 8
  store i32 1, ptr %39, align 4
  br label %40

40:                                               ; preds = %29, %38, %36, %34
  store i1 true, ptr %3, align 1
  store i32 1, ptr %9, align 4
  br label %41

41:                                               ; preds = %40, %28, %17
  call void @llvm.lifetime.end.p0(i64 72, ptr %8) #3
  call void @llvm.lifetime.end.p0(i64 4, ptr %7) #3
  call void @llvm.lifetime.end.p0(i64 8, ptr %6) #3
  %42 = load i1, ptr %3, align 1
  ret i1 %42
}

; Function Attrs: nounwind uwtable
define hidden zeroext i1 @SDL_SystemTheme_Init() #0 {
  %1 = alloca i1, align 1
  %2 = alloca ptr, align 8
  %3 = alloca ptr, align 8
  %4 = alloca i32, align 4
  %5 = alloca ptr, align 8
  %6 = alloca %struct.DBusMessageIter, align 8
  %7 = alloca %struct.DBusMessageIter, align 8
  call void @llvm.lifetime.start.p0(i64 8, ptr %2) #3
  %8 = call ptr @SDL_DBus_GetContext()
  store ptr %8, ptr %2, align 8
  call void @llvm.lifetime.start.p0(i64 8, ptr %3) #3
  store i32 0, ptr getelementptr inbounds nuw (%struct.SystemThemeData, ptr @system_theme_data, i32 0, i32 1), align 8
  %9 = load ptr, ptr %2, align 8
  store ptr %9, ptr @system_theme_data, align 8
  %10 = load ptr, ptr %2, align 8
  %11 = icmp ne ptr %10, null
  br i1 %11, label %13, label %12

12:                                               ; preds = %0
  store i1 false, ptr %1, align 1
  store i32 1, ptr %4, align 4
  br label %89

13:                                               ; preds = %0
  %14 = load ptr, ptr %2, align 8
  %15 = getelementptr inbounds nuw %struct.SDL_DBusContext, ptr %14, i32 0, i32 24
  %16 = load ptr, ptr %15, align 8
  %17 = call ptr %16(ptr noundef @.str.2, ptr noundef @.str.3, ptr noundef @.str.4, ptr noundef @.str.5)
  store ptr %17, ptr %3, align 8
  %18 = load ptr, ptr %3, align 8
  %19 = icmp ne ptr %18, null
  br i1 %19, label %20, label %68

20:                                               ; preds = %13
  %21 = load ptr, ptr %2, align 8
  %22 = getelementptr inbounds nuw %struct.SDL_DBusContext, ptr %21, i32 0, i32 26
  %23 = load ptr, ptr %22, align 8
  %24 = load ptr, ptr %3, align 8
  %25 = call i32 (ptr, i32, ...) %23(ptr noundef %24, i32 noundef 115, ptr noundef @SDL_SystemTheme_Init.namespace, i32 noundef 115, ptr noundef @SDL_SystemTheme_Init.key, i32 noundef 0)
  %26 = icmp ne i32 %25, 0
  br i1 %26, label %27, label %63

27:                                               ; preds = %20
  call void @llvm.lifetime.start.p0(i64 8, ptr %5) #3
  %28 = load ptr, ptr %2, align 8
  %29 = getelementptr inbounds nuw %struct.SDL_DBusContext, ptr %28, i32 0, i32 14
  %30 = load ptr, ptr %29, align 8
  %31 = load ptr, ptr %2, align 8
  %32 = getelementptr inbounds nuw %struct.SDL_DBusContext, ptr %31, i32 0, i32 0
  %33 = load ptr, ptr %32, align 8
  %34 = load ptr, ptr %3, align 8
  %35 = call ptr %30(ptr noundef %33, ptr noundef %34, i32 noundef 300, ptr noundef null)
  store ptr %35, ptr %5, align 8
  %36 = load ptr, ptr %5, align 8
  %37 = icmp ne ptr %36, null
  br i1 %37, label %38, label %62

38:                                               ; preds = %27
  call void @llvm.lifetime.start.p0(i64 72, ptr %6) #3
  call void @llvm.lifetime.start.p0(i64 72, ptr %7) #3
  %39 = load ptr, ptr %2, align 8
  %40 = getelementptr inbounds nuw %struct.SDL_DBusContext, ptr %39, i32 0, i32 34
  %41 = load ptr, ptr %40, align 8
  %42 = load ptr, ptr %5, align 8
  %43 = call i32 %41(ptr noundef %42, ptr noundef %6)
  %44 = load ptr, ptr %2, align 8
  %45 = getelementptr inbounds nuw %struct.SDL_DBusContext, ptr %44, i32 0, i32 37
  %46 = load ptr, ptr %45, align 8
  %47 = call i32 %46(ptr noundef %6)
  %48 = icmp ne i32 %47, 118
  br i1 %48, label %49, label %50

49:                                               ; preds = %38
  br label %57

50:                                               ; preds = %38
  %51 = load ptr, ptr %2, align 8
  %52 = getelementptr inbounds nuw %struct.SDL_DBusContext, ptr %51, i32 0, i32 38
  %53 = load ptr, ptr %52, align 8
  call void %53(ptr noundef %6, ptr noundef %7)
  %54 = call zeroext i1 @DBus_ExtractThemeVariant(ptr noundef %7, ptr noundef getelementptr inbounds nuw (%struct.SystemThemeData, ptr @system_theme_data, i32 0, i32 1))
  br i1 %54, label %56, label %55

55:                                               ; preds = %50
  br label %57

56:                                               ; preds = %50
  br label %57

57:                                               ; preds = %56, %55, %49
  %58 = load ptr, ptr %2, align 8
  %59 = getelementptr inbounds nuw %struct.SDL_DBusContext, ptr %58, i32 0, i32 39
  %60 = load ptr, ptr %59, align 8
  %61 = load ptr, ptr %5, align 8
  call void %60(ptr noundef %61)
  call void @llvm.lifetime.end.p0(i64 72, ptr %7) #3
  call void @llvm.lifetime.end.p0(i64 72, ptr %6) #3
  br label %62

62:                                               ; preds = %57, %27
  call void @llvm.lifetime.end.p0(i64 8, ptr %5) #3
  br label %63

63:                                               ; preds = %62, %20
  %64 = load ptr, ptr %2, align 8
  %65 = getelementptr inbounds nuw %struct.SDL_DBusContext, ptr %64, i32 0, i32 39
  %66 = load ptr, ptr %65, align 8
  %67 = load ptr, ptr %3, align 8
  call void %66(ptr noundef %67)
  br label %68

68:                                               ; preds = %63, %13
  %69 = load ptr, ptr %2, align 8
  %70 = getelementptr inbounds nuw %struct.SDL_DBusContext, ptr %69, i32 0, i32 4
  %71 = load ptr, ptr %70, align 8
  %72 = load ptr, ptr %2, align 8
  %73 = getelementptr inbounds nuw %struct.SDL_DBusContext, ptr %72, i32 0, i32 0
  %74 = load ptr, ptr %73, align 8
  call void %71(ptr noundef %74, ptr noundef @.str.6, ptr noundef null)
  %75 = load ptr, ptr %2, align 8
  %76 = getelementptr inbounds nuw %struct.SDL_DBusContext, ptr %75, i32 0, i32 10
  %77 = load ptr, ptr %76, align 8
  %78 = load ptr, ptr %2, align 8
  %79 = getelementptr inbounds nuw %struct.SDL_DBusContext, ptr %78, i32 0, i32 0
  %80 = load ptr, ptr %79, align 8
  %81 = load ptr, ptr %2, align 8
  %82 = call i32 %77(ptr noundef %80, ptr noundef @DBus_MessageFilter, ptr noundef %81, ptr noundef null)
  %83 = load ptr, ptr %2, align 8
  %84 = getelementptr inbounds nuw %struct.SDL_DBusContext, ptr %83, i32 0, i32 18
  %85 = load ptr, ptr %84, align 8
  %86 = load ptr, ptr %2, align 8
  %87 = getelementptr inbounds nuw %struct.SDL_DBusContext, ptr %86, i32 0, i32 0
  %88 = load ptr, ptr %87, align 8
  call void %85(ptr noundef %88)
  store i1 true, ptr %1, align 1
  store i32 1, ptr %4, align 4
  br label %89

89:                                               ; preds = %68, %12
  call void @llvm.lifetime.end.p0(i64 8, ptr %3) #3
  call void @llvm.lifetime.end.p0(i64 8, ptr %2) #3
  %90 = load i1, ptr %1, align 1
  ret i1 %90
}