; Function Attrs: nounwind uwtable
define hidden noundef zeroext i1 @SDL_SystemTheme_Init() local_unnamed_addr #0 {
  %1 = alloca i32, align 4
  %2 = alloca %struct.DBusMessageIter, align 8
  %3 = alloca %struct.DBusMessageIter, align 8
  %4 = alloca %struct.DBusMessageIter, align 8
  %5 = tail call ptr @SDL_DBus_GetContext() #4
  store i32 0, ptr @system_theme_data.1, align 8
  store ptr %5, ptr @system_theme_data.0, align 8
  %.not = icmp ne ptr %5, null
  br i1 %.not, label %6, label %61

6:                                                ; preds = %0
  %7 = getelementptr inbounds nuw i8, ptr %5, i64 192
  %8 = load ptr, ptr %7, align 8
  %9 = tail call ptr %8(ptr noundef nonnull @.str.2, ptr noundef nonnull @.str.3, ptr noundef nonnull @.str.4, ptr noundef nonnull @.str.5) #4
  %.not29 = icmp eq ptr %9, null
  br i1 %.not29, label %50, label %10

10:                                               ; preds = %6
  %11 = getelementptr inbounds nuw i8, ptr %5, i64 208
  %12 = load ptr, ptr %11, align 8
  %13 = tail call i32 (ptr, i32, ...) %12(ptr noundef nonnull %9, i32 noundef 115, ptr noundef nonnull @SDL_SystemTheme_Init.namespace, i32 noundef 115, ptr noundef nonnull @SDL_SystemTheme_Init.key, i32 noundef 0) #4
  %.not30 = icmp eq i32 %13, 0
  br i1 %.not30, label %47, label %14

14:                                               ; preds = %10
  %15 = getelementptr inbounds nuw i8, ptr %5, i64 112
  %16 = load ptr, ptr %15, align 8
  %17 = load ptr, ptr %5, align 8
  %18 = tail call ptr %16(ptr noundef %17, ptr noundef nonnull %9, i32 noundef 300, ptr noundef null) #4
  %.not31 = icmp eq ptr %18, null
  br i1 %.not31, label %47, label %19

19:                                               ; preds = %14
  call void @llvm.lifetime.start.p0(i64 72, ptr nonnull %3) #4
  call void @llvm.lifetime.start.p0(i64 72, ptr nonnull %4) #4
  %20 = getelementptr inbounds nuw i8, ptr %5, i64 272
  %21 = load ptr, ptr %20, align 8
  %22 = call i32 %21(ptr noundef nonnull %18, ptr noundef nonnull %3) #4
  %23 = getelementptr inbounds nuw i8, ptr %5, i64 296
  %24 = load ptr, ptr %23, align 8
  %25 = call i32 %24(ptr noundef nonnull %3) #4
  %.not32 = icmp eq i32 %25, 118
  br i1 %.not32, label %26, label %44

26:                                               ; preds = %19
  %27 = getelementptr inbounds nuw i8, ptr %5, i64 304
  %28 = load ptr, ptr %27, align 8
  call void %28(ptr noundef nonnull %3, ptr noundef nonnull %4) #4
  %29 = load ptr, ptr @system_theme_data.0, align 8
  call void @llvm.lifetime.start.p0(i64 4, ptr nonnull %1) #4
  call void @llvm.lifetime.start.p0(i64 72, ptr nonnull %2) #4
  %30 = getelementptr inbounds nuw i8, ptr %29, i64 296
  %31 = load ptr, ptr %30, align 8
  %32 = call i32 %31(ptr noundef nonnull %4) #4
  %.not.i = icmp eq i32 %32, 118
  br i1 %.not.i, label %33, label %DBus_ExtractThemeVariant.exit

33:                                               ; preds = %26
  %34 = getelementptr inbounds nuw i8, ptr %29, i64 304
  %35 = load ptr, ptr %34, align 8
  call void %35(ptr noundef nonnull %4, ptr noundef nonnull %2) #4
  %36 = load ptr, ptr %30, align 8
  %37 = call i32 %36(ptr noundef nonnull %2) #4
  %.not10.i = icmp eq i32 %37, 117
  br i1 %.not10.i, label %38, label %DBus_ExtractThemeVariant.exit

38:                                               ; preds = %33
  %39 = getelementptr inbounds nuw i8, ptr %29, i64 288
  %40 = load ptr, ptr %39, align 8
  call void %40(ptr noundef nonnull %2, ptr noundef nonnull %1) #4
  %41 = load i32, ptr %1, align 4
  %42 = icmp ult i32 %41, 3
  br i1 %42, label %switch.lookup, label %DBus_ExtractThemeVariant.exit

switch.lookup:                                    ; preds = %38
  %43 = zext nneg i32 %41 to i64
  %switch.gep = getelementptr inbounds nuw [3 x i32], ptr @switch.table.DBus_ExtractThemeVariant, i64 0, i64 %43
  %switch.load = load i32, ptr %switch.gep, align 4
  store i32 %switch.load, ptr @system_theme_data.1, align 8
  br label %DBus_ExtractThemeVariant.exit

DBus_ExtractThemeVariant.exit:                    ; preds = %38, %26, %33, %switch.lookup
  call void @llvm.lifetime.end.p0(i64 72, ptr nonnull %2) #4
  call void @llvm.lifetime.end.p0(i64 4, ptr nonnull %1) #4
  br label %44

44:                                               ; preds = %DBus_ExtractThemeVariant.exit, %19
  %45 = getelementptr inbounds nuw i8, ptr %5, i64 312
  %46 = load ptr, ptr %45, align 8
  call void %46(ptr noundef nonnull %18) #4
  call void @llvm.lifetime.end.p0(i64 72, ptr nonnull %4) #4
  call void @llvm.lifetime.end.p0(i64 72, ptr nonnull %3) #4
  br label %47

47:                                               ; preds = %14, %44, %10
  %48 = getelementptr inbounds nuw i8, ptr %5, i64 312
  %49 = load ptr, ptr %48, align 8
  call void %49(ptr noundef nonnull %9) #4
  br label %50

50:                                               ; preds = %47, %6
  %51 = getelementptr inbounds nuw i8, ptr %5, i64 32
  %52 = load ptr, ptr %51, align 8
  %53 = load ptr, ptr %5, align 8
  call void %52(ptr noundef %53, ptr noundef nonnull @.str.6, ptr noundef null) #4
  %54 = getelementptr inbounds nuw i8, ptr %5, i64 80
  %55 = load ptr, ptr %54, align 8
  %56 = load ptr, ptr %5, align 8
  %57 = call i32 %55(ptr noundef %56, ptr noundef nonnull @DBus_MessageFilter, ptr noundef nonnull %5, ptr noundef null) #4
  %58 = getelementptr inbounds nuw i8, ptr %5, i64 144
  %59 = load ptr, ptr %58, align 8
  %60 = load ptr, ptr %5, align 8
  call void %59(ptr noundef %60) #4
  br label %61

61:                                               ; preds = %0, %50
  ret i1 %.not
}